target datalayout = "e-m:e-p270:32:32-p271:32:32-p272:64:64-i64:64-i128:128-f80:128-n8:16:32:64-S128"
target triple = "x86_64-pc-linux-gnu"

%class.LogTagSet = type { ptr, i64, [5 x i32], [4 x i8], %class.LogOutputList, %class.LogDecorators, ptr }
%class.LogOutputList = type <{ [6 x ptr], i32, [4 x i8] }>
%class.LogDecorators = type { i32 }
%class.ShenandoahRefProcThreadLocal = type { ptr, ptr, [5 x i64], [5 x i64], [5 x i64] }
%class.ShenandoahReferenceProcessor = type { %class.ReferenceDiscoverer, ptr, ptr, ptr, ptr, i32, %class.ReferenceProcessorStats }
%class.ReferenceDiscoverer = type { ptr }
%class.ReferenceProcessorStats = type { i64, i64, i64, i64 }

@.str.5 = private unnamed_addr constant [71 x i8] c"Encountered references: Soft: %lu, Weak: %lu, Final: %lu, Phantom: %lu\00", align 1
@.str.6 = private unnamed_addr constant [71 x i8] c"Discovered  references: Soft: %lu, Weak: %lu, Final: %lu, Phantom: %lu\00", align 1
@.str.7 = private unnamed_addr constant [71 x i8] c"Enqueued    references: Soft: %lu, Weak: %lu, Final: %lu, Phantom: %lu\00", align 1
@_ZN16LogTagSetMappingILN6LogTag4typeE49ELS1_126ELS1_0ELS1_0ELS1_0ELS1_0EE7_tagsetE = linkonce_odr hidden global %class.LogTagSet zeroinitializer, comdat, align 8
@_ZN8Universe14_collectedHeapE = external global ptr, align 8

; Function Attrs: mustprogress nounwind uwtable
define linkonce_odr hidden noundef zeroext i1 @_ZNK13LogOutputList8is_levelEN8LogLevel4typeE(ptr noundef nonnull align 8 dereferenceable(52) %0, i32 noundef %1) #1 comdat align 2 {
  %3 = alloca ptr, align 8
  %4 = alloca i32, align 4
  store ptr %0, ptr %3, align 8
  store i32 %1, ptr %4, align 4
  %5 = load ptr, ptr %3, align 8
  %6 = getelementptr inbounds %class.LogOutputList, ptr %5, i32 0, i32 0
  %7 = load i32, ptr %4, align 4
  %8 = zext i32 %7 to i64
  %9 = getelementptr inbounds [6 x ptr], ptr %6, i64 0, i64 %8
  %10 = load volatile ptr, ptr %9, align 8
  %11 = icmp ne ptr %10, null
  ret i1 %11
}

; Function Attrs: mustprogress nounwind uwtable
define linkonce_odr hidden noundef ptr @_ZN8Universe4heapEv() #1 comdat align 2 {
  %1 = load ptr, ptr @_ZN8Universe14_collectedHeapE, align 8
  ret ptr %1
}

; Function Attrs: mustprogress nounwind uwtable
define linkonce_odr hidden noundef zeroext i1 @_ZNK9LogTagSet8is_levelEN8LogLevel4typeE(ptr noundef nonnull align 8 dereferenceable(112) %0, i32 noundef %1) #1 comdat align 2 {
  %3 = alloca ptr, align 8
  %4 = alloca i32, align 4
  store ptr %0, ptr %3, align 8
  store i32 %1, ptr %4, align 4
  %5 = load ptr, ptr %3, align 8
  %6 = getelementptr inbounds %class.LogTagSet, ptr %5, i32 0, i32 4
  %7 = load i32, ptr %4, align 4
  %8 = call noundef zeroext i1 @_ZNK13LogOutputList8is_levelEN8LogLevel4typeE(ptr noundef nonnull align 8 dereferenceable(52) %6, i32 noundef %7)
  ret i1 %8
}

; Function Attrs: mustprogress nounwind uwtable
define linkonce_odr hidden noundef nonnull align 8 dereferenceable(112) ptr @_ZN16LogTagSetMappingILN6LogTag4typeE49ELS1_126ELS1_0ELS1_0ELS1_0ELS1_0EE6tagsetEv() #1 comdat align 2 {
  ret ptr @_ZN16LogTagSetMappingILN6LogTag4typeE49ELS1_126ELS1_0ELS1_0ELS1_0ELS1_0EE7_tagsetE
}

; Function Attrs: mustprogress nounwind uwtable
define linkonce_odr hidden noundef ptr @_ZN13CollectedHeap10named_heapI14ShenandoahHeapEEPT_NS_4NameE(i32 noundef %0) #1 comdat align 2 {
  %2 = alloca i32, align 4
  %3 = alloca ptr, align 8
  store i32 %0, ptr %2, align 4
  %4 = call noundef ptr @_ZN8Universe4heapEv()
  store ptr %4, ptr %3, align 8
  %5 = load ptr, ptr %3, align 8
  ret ptr %5
}

; Function Attrs: mustprogress nounwind uwtable
define linkonce_odr hidden noundef zeroext i1 @_ZN7LogImplILN6LogTag4typeE49ELS1_126ELS1_0ELS1_0ELS1_0ELS1_0EE8is_levelEN8LogLevel4typeE(i32 noundef %0) #1 comdat align 2 {
  %2 = alloca i32, align 4
  store i32 %0, ptr %2, align 4
  %3 = call noundef nonnull align 8 dereferenceable(112) ptr @_ZN16LogTagSetMappingILN6LogTag4typeE49ELS1_126ELS1_0ELS1_0ELS1_0ELS1_0EE6tagsetEv()
  %4 = load i32, ptr %2, align 4
  %5 = call noundef zeroext i1 @_ZNK9LogTagSet8is_levelEN8LogLevel4typeE(ptr noundef nonnull align 8 dereferenceable(112) %3, i32 noundef %4)
  ret i1 %5
}

; Function Attrs: mustprogress nounwind uwtable
define linkonce_odr hidden void @_ZN23ReferenceProcessorStatsC2Emmmm(ptr noundef nonnull align 8 dereferenceable(32) %0, i64 noundef %1, i64 noundef %2, i64 noundef %3, i64 noundef %4) unnamed_addr #1 comdat align 2 {
  %6 = alloca ptr, align 8
  %7 = alloca i64, align 8
  %8 = alloca i64, align 8
  %9 = alloca i64, align 8
  %10 = alloca i64, align 8
  store ptr %0, ptr %6, align 8
  store i64 %1, ptr %7, align 8
  store i64 %2, ptr %8, align 8
  store i64 %3, ptr %9, align 8
  store i64 %4, ptr %10, align 8
  %11 = load ptr, ptr %6, align 8
  %12 = getelementptr inbounds %class.ReferenceProcessorStats, ptr %11, i32 0, i32 0
  %13 = load i64, ptr %7, align 8
  store i64 %13, ptr %12, align 8
  %14 = getelementptr inbounds %class.ReferenceProcessorStats, ptr %11, i32 0, i32 1
  %15 = load i64, ptr %8, align 8
  store i64 %15, ptr %14, align 8
  %16 = getelementptr inbounds %class.ReferenceProcessorStats, ptr %11, i32 0, i32 2
  %17 = load i64, ptr %9, align 8
  store i64 %17, ptr %16, align 8
  %18 = getelementptr inbounds %class.ReferenceProcessorStats, ptr %11, i32 0, i32 3
  %19 = load i64, ptr %10, align 8
  store i64 %19, ptr %18, align 8
  ret void
}

; Function Attrs: mustprogress nounwind uwtable
define linkonce_odr hidden noundef i64 @_ZNK28ShenandoahRefProcThreadLocal8enqueuedE13ReferenceType(ptr noundef nonnull align 8 dereferenceable(136) %0, i32 noundef %1) #1 comdat align 2 {
  %3 = alloca ptr, align 8
  %4 = alloca i32, align 4
  store ptr %0, ptr %3, align 8
  store i32 %1, ptr %4, align 4
  %5 = load ptr, ptr %3, align 8
  %6 = getelementptr inbounds %class.ShenandoahRefProcThreadLocal, ptr %5, i32 0, i32 4
  %7 = load i32, ptr %4, align 4
  %8 = zext i32 %7 to i64
  %9 = getelementptr inbounds [5 x i64], ptr %6, i64 0, i64 %8
  %10 = load i64, ptr %9, align 8
  ret i64 %10
}

; Function Attrs: mustprogress nounwind uwtable
define linkonce_odr hidden noundef i64 @_ZNK28ShenandoahRefProcThreadLocal10discoveredE13ReferenceType(ptr noundef nonnull align 8 dereferenceable(136) %0, i32 noundef %1) #1 comdat align 2 {
  %3 = alloca ptr, align 8
  %4 = alloca i32, align 4
  store ptr %0, ptr %3, align 8
  store i32 %1, ptr %4, align 4
  %5 = load ptr, ptr %3, align 8
  %6 = getelementptr inbounds %class.ShenandoahRefProcThreadLocal, ptr %5, i32 0, i32 3
  %7 = load i32, ptr %4, align 4
  %8 = zext i32 %7 to i64
  %9 = getelementptr inbounds [5 x i64], ptr %6, i64 0, i64 %8
  %10 = load i64, ptr %9, align 8
  ret i64 %10
}

; Function Attrs: mustprogress nounwind uwtable
define linkonce_odr hidden noundef i64 @_ZNK28ShenandoahRefProcThreadLocal11encounteredE13ReferenceType(ptr noundef nonnull align 8 dereferenceable(136) %0, i32 noundef %1) #1 comdat align 2 {
  %3 = alloca ptr, align 8
  %4 = alloca i32, align 4
  store ptr %0, ptr %3, align 8
  store i32 %1, ptr %4, align 4
  %5 = load ptr, ptr %3, align 8
  %6 = getelementptr inbounds %class.ShenandoahRefProcThreadLocal, ptr %5, i32 0, i32 2
  %7 = load i32, ptr %4, align 4
  %8 = zext i32 %7 to i64
  %9 = getelementptr inbounds [5 x i64], ptr %6, i64 0, i64 %8
  %10 = load i64, ptr %9, align 8
  ret i64 %10
}

; Function Attrs: mustprogress nounwind uwtable
define linkonce_odr hidden noundef ptr @_ZN14ShenandoahHeap4heapEv() #1 comdat align 2 {
  %1 = call noundef ptr @_ZN13CollectedHeap10named_heapI14ShenandoahHeapEEPT_NS_4NameE(i32 noundef 6)
  ret ptr %1
}

; Function Attrs: mustprogress nounwind uwtable
define hidden void @_ZN28ShenandoahReferenceProcessor18collect_statisticsEv(ptr noundef nonnull align 8 dereferenceable(80) %0) #1 align 2 {
  %2 = alloca ptr, align 8
  %3 = alloca [5 x i64], align 16
  %4 = alloca [5 x i64], align 16
  %5 = alloca [5 x i64], align 16
  %6 = alloca i32, align 4
  %7 = alloca i32, align 4
  %8 = alloca i64, align 8
  %9 = alloca %class.ReferenceProcessorStats, align 8
  store ptr %0, ptr %2, align 8
  %10 = load ptr, ptr %2, align 8
  call void @llvm.memset.p0.i64(ptr align 16 %3, i8 0, i64 40, i1 false)
  call void @llvm.memset.p0.i64(ptr align 16 %4, i8 0, i64 40, i1 false)
  call void @llvm.memset.p0.i64(ptr align 16 %5, i8 0, i64 40, i1 false)
  %11 = call noundef ptr @_ZN14ShenandoahHeap4heapEv()
  %12 = call noundef i32 @_ZN14ShenandoahHeap11max_workersEv(ptr noundef nonnull align 8 dereferenceable(2657) %11)
  store i32 %12, ptr %6, align 4
  store i32 0, ptr %7, align 4
  br label %13

13:                                               ; preds = %62, %1
  %14 = load i32, ptr %7, align 4
  %15 = load i32, ptr %6, align 4
  %16 = icmp ult i32 %14, %15
  br i1 %16, label %17, label %65

17:                                               ; preds = %13
  store i64 0, ptr %8, align 8
  br label %18

18:                                               ; preds = %58, %17
  %19 = load i64, ptr %8, align 8
  %20 = icmp ult i64 %19, 5
  br i1 %20, label %21, label %61

21:                                               ; preds = %18
  %22 = getelementptr inbounds %class.ShenandoahReferenceProcessor, ptr %10, i32 0, i32 2
  %23 = load ptr, ptr %22, align 8
  %24 = load i32, ptr %7, align 4
  %25 = zext i32 %24 to i64
  %26 = getelementptr inbounds %class.ShenandoahRefProcThreadLocal, ptr %23, i64 %25
  %27 = load i64, ptr %8, align 8
  %28 = trunc i64 %27 to i32
  %29 = call noundef i64 @_ZNK28ShenandoahRefProcThreadLocal11encounteredE13ReferenceType(ptr noundef nonnull align 8 dereferenceable(136) %26, i32 noundef %28)
  %30 = load i64, ptr %8, align 8
  %31 = getelementptr inbounds [5 x i64], ptr %3, i64 0, i64 %30
  %32 = load i64, ptr %31, align 8
  %33 = add i64 %32, %29
  store i64 %33, ptr %31, align 8
  %34 = getelementptr inbounds %class.ShenandoahReferenceProcessor, ptr %10, i32 0, i32 2
  %35 = load ptr, ptr %34, align 8
  %36 = load i32, ptr %7, align 4
  %37 = zext i32 %36 to i64
  %38 = getelementptr inbounds %class.ShenandoahRefProcThreadLocal, ptr %35, i64 %37
  %39 = load i64, ptr %8, align 8
  %40 = trunc i64 %39 to i32
  %41 = call noundef i64 @_ZNK28ShenandoahRefProcThreadLocal10discoveredE13ReferenceType(ptr noundef nonnull align 8 dereferenceable(136) %38, i32 noundef %40)
  %42 = load i64, ptr %8, align 8
  %43 = getelementptr inbounds [5 x i64], ptr %4, i64 0, i64 %42
  %44 = load i64, ptr %43, align 8
  %45 = add i64 %44, %41
  store i64 %45, ptr %43, align 8
  %46 = getelementptr inbounds %class.ShenandoahReferenceProcessor, ptr %10, i32 0, i32 2
  %47 = load ptr, ptr %46, align 8
  %48 = load i32, ptr %7, align 4
  %49 = zext i32 %48 to i64
  %50 = getelementptr inbounds %class.ShenandoahRefProcThreadLocal, ptr %47, i64 %49
  %51 = load i64, ptr %8, align 8
  %52 = trunc i64 %51 to i32
  %53 = call noundef i64 @_ZNK28ShenandoahRefProcThreadLocal8enqueuedE13ReferenceType(ptr noundef nonnull align 8 dereferenceable(136) %50, i32 noundef %52)
  %54 = load i64, ptr %8, align 8
  %55 = getelementptr inbounds [5 x i64], ptr %5, i64 0, i64 %54
  %56 = load i64, ptr %55, align 8
  %57 = add i64 %56, %53
  store i64 %57, ptr %55, align 8
  br label %58

58:                                               ; preds = %21
  %59 = load i64, ptr %8, align 8
  %60 = add i64 %59, 1
  store i64 %60, ptr %8, align 8
  br label %18, !llvm.loop !14

61:                                               ; preds = %18
  br label %62

62:                                               ; preds = %61
  %63 = load i32, ptr %7, align 4
  %64 = add i32 %63, 1
  store i32 %64, ptr %7, align 4
  br label %13, !llvm.loop !15

65:                                               ; preds = %13
  %66 = getelementptr inbounds [5 x i64], ptr %4, i64 0, i64 1
  %67 = load i64, ptr %66, align 8
  %68 = getelementptr inbounds [5 x i64], ptr %4, i64 0, i64 2
  %69 = load i64, ptr %68, align 16
  %70 = getelementptr inbounds [5 x i64], ptr %4, i64 0, i64 3
  %71 = load i64, ptr %70, align 8
  %72 = getelementptr inbounds [5 x i64], ptr %4, i64 0, i64 4
  %73 = load i64, ptr %72, align 16
  call void @_ZN23ReferenceProcessorStatsC2Emmmm(ptr noundef nonnull align 8 dereferenceable(32) %9, i64 noundef %67, i64 noundef %69, i64 noundef %71, i64 noundef %73)
  %74 = getelementptr inbounds %class.ShenandoahReferenceProcessor, ptr %10, i32 0, i32 6
  call void @llvm.memcpy.p0.p0.i64(ptr align 8 %74, ptr align 8 %9, i64 32, i1 false)
  %75 = call noundef zeroext i1 @_ZN7LogImplILN6LogTag4typeE49ELS1_126ELS1_0ELS1_0ELS1_0ELS1_0EE8is_levelEN8LogLevel4typeE(i32 noundef 3)
  br i1 %75, label %77, label %76

76:                                               ; preds = %65
  br label %86

77:                                               ; preds = %65
  %78 = getelementptr inbounds [5 x i64], ptr %3, i64 0, i64 1
  %79 = load i64, ptr %78, align 8
  %80 = getelementptr inbounds [5 x i64], ptr %3, i64 0, i64 2
  %81 = load i64, ptr %80, align 16
  %82 = getelementptr inbounds [5 x i64], ptr %3, i64 0, i64 3
  %83 = load i64, ptr %82, align 8
  %84 = getelementptr inbounds [5 x i64], ptr %3, i64 0, i64 4
  %85 = load i64, ptr %84, align 16
  call void (ptr, ...) @_ZN7LogImplILN6LogTag4typeE49ELS1_126ELS1_0ELS1_0ELS1_0ELS1_0EE5writeILN8LogLevel4typeE3EEEvPKcz(ptr noundef @.str.5, i64 noundef %79, i64 noundef %81, i64 noundef %83, i64 noundef %85)
  br label %86

86:                                               ; preds = %77, %76
  %87 = call noundef zeroext i1 @_ZN7LogImplILN6LogTag4typeE49ELS1_126ELS1_0ELS1_0ELS1_0ELS1_0EE8is_levelEN8LogLevel4typeE(i32 noundef 3)
  br i1 %87, label %89, label %88

88:                                               ; preds = %86
  br label %98

89:                                               ; preds = %86
  %90 = getelementptr inbounds [5 x i64], ptr %4, i64 0, i64 1
  %91 = load i64, ptr %90, align 8
  %92 = getelementptr inbounds [5 x i64], ptr %4, i64 0, i64 2
  %93 = load i64, ptr %92, align 16
  %94 = getelementptr inbounds [5 x i64], ptr %4, i64 0, i64 3
  %95 = load i64, ptr %94, align 8
  %96 = getelementptr inbounds [5 x i64], ptr %4, i64 0, i64 4
  %97 = load i64, ptr %96, align 16
  call void (ptr, ...) @_ZN7LogImplILN6LogTag4typeE49ELS1_126ELS1_0ELS1_0ELS1_0ELS1_0EE5writeILN8LogLevel4typeE3EEEvPKcz(ptr noundef @.str.6, i64 noundef %91, i64 noundef %93, i64 noundef %95, i64 noundef %97)
  br label %98

98:                                               ; preds = %89, %88
  %99 = call noundef zeroext i1 @_ZN7LogImplILN6LogTag4typeE49ELS1_126ELS1_0ELS1_0ELS1_0ELS1_0EE8is_levelEN8LogLevel4typeE(i32 noundef 3)
  br i1 %99, label %101, label %100

100:                                              ; preds = %98
  br label %110

101:                                              ; preds = %98
  %102 = getelementptr inbounds [5 x i64], ptr %5, i64 0, i64 1
  %103 = load i64, ptr %102, align 8
  %104 = getelementptr inbounds [5 x i64], ptr %5, i64 0, i64 2
  %105 = load i64, ptr %104, align 16
  %106 = getelementptr inbounds [5 x i64], ptr %5, i64 0, i64 3
  %107 = load i64, ptr %106, align 8
  %108 = getelementptr inbounds [5 x i64], ptr %5, i64 0, i64 4
  %109 = load i64, ptr %108, align 16
  call void (ptr, ...) @_ZN7LogImplILN6LogTag4typeE49ELS1_126ELS1_0ELS1_0ELS1_0ELS1_0EE5writeILN8LogLevel4typeE3EEEvPKcz(ptr noundef @.str.7, i64 noundef %103, i64 noundef %105, i64 noundef %107, i64 noundef %109)
  br label %110

110:                                              ; preds = %101, %100
  ret void
}