; Function Attrs: mustprogress nounwind uwtable
define hidden void @_ZN28ShenandoahReferenceProcessor18collect_statisticsEv(ptr nocapture noundef nonnull align 8 dereferenceable(80) %0) local_unnamed_addr #5 align 2 {
  %2 = alloca [5 x i64], align 16
  %3 = alloca [5 x i64], align 16
  %4 = alloca [5 x i64], align 16
  call void @llvm.memset.p0.i64(ptr noundef nonnull align 16 dereferenceable(40) %2, i8 0, i64 40, i1 false)
  call void @llvm.memset.p0.i64(ptr noundef nonnull align 16 dereferenceable(40) %3, i8 0, i64 40, i1 false)
  call void @llvm.memset.p0.i64(ptr noundef nonnull align 16 dereferenceable(40) %4, i8 0, i64 40, i1 false)
  %5 = load ptr, ptr @_ZN8Universe14_collectedHeapE, align 8
  %6 = tail call noundef i32 @_ZN14ShenandoahHeap11max_workersEv(ptr noundef nonnull align 8 dereferenceable(2657) %5) #14
  %.not19 = icmp eq i32 %6, 0
  br i1 %.not19, label %._crit_edge, label %.preheader.lr.ph

.preheader.lr.ph:                                 ; preds = %1
  %7 = getelementptr inbounds i8, ptr %0, i64 16
  %8 = load ptr, ptr %7, align 8
  %wide.trip.count = zext i32 %6 to i64
  br label %.preheader

.preheader:                                       ; preds = %.preheader.lr.ph, %30
  %indvars.iv = phi i64 [ 0, %.preheader.lr.ph ], [ %indvars.iv.next, %30 ]
  %9 = getelementptr inbounds %class.ShenandoahRefProcThreadLocal, ptr %8, i64 %indvars.iv
  %10 = getelementptr inbounds i8, ptr %9, i64 16
  %11 = getelementptr inbounds i8, ptr %9, i64 56
  %12 = getelementptr inbounds i8, ptr %9, i64 96
  br label %13

13:                                               ; preds = %.preheader, %13
  %.017 = phi i64 [ 0, %.preheader ], [ %29, %13 ]
  %14 = getelementptr inbounds [5 x i64], ptr %10, i64 0, i64 %.017
  %15 = load i64, ptr %14, align 8
  %16 = getelementptr inbounds [5 x i64], ptr %2, i64 0, i64 %.017
  %17 = load i64, ptr %16, align 8
  %18 = add i64 %17, %15
  store i64 %18, ptr %16, align 8
  %19 = getelementptr inbounds [5 x i64], ptr %11, i64 0, i64 %.017
  %20 = load i64, ptr %19, align 8
  %21 = getelementptr inbounds [5 x i64], ptr %3, i64 0, i64 %.017
  %22 = load i64, ptr %21, align 8
  %23 = add i64 %22, %20
  store i64 %23, ptr %21, align 8
  %24 = getelementptr inbounds [5 x i64], ptr %12, i64 0, i64 %.017
  %25 = load i64, ptr %24, align 8
  %26 = getelementptr inbounds [5 x i64], ptr %4, i64 0, i64 %.017
  %27 = load i64, ptr %26, align 8
  %28 = add i64 %27, %25
  store i64 %28, ptr %26, align 8
  %29 = add nuw nsw i64 %.017, 1
  %exitcond.not = icmp eq i64 %29, 5
  br i1 %exitcond.not, label %30, label %13, !llvm.loop !18

30:                                               ; preds = %13
  %indvars.iv.next = add nuw nsw i64 %indvars.iv, 1
  %exitcond21.not = icmp eq i64 %indvars.iv.next, %wide.trip.count
  br i1 %exitcond21.not, label %._crit_edge.loopexit, label %.preheader, !llvm.loop !19

._crit_edge.loopexit:                             ; preds = %30
  %.phi.trans.insert = getelementptr inbounds i8, ptr %3, i64 8
  %.pre = load i64, ptr %.phi.trans.insert, align 8
  %.phi.trans.insert22 = getelementptr inbounds i8, ptr %3, i64 16
  %.pre23 = load i64, ptr %.phi.trans.insert22, align 16
  %.phi.trans.insert24 = getelementptr inbounds i8, ptr %3, i64 24
  %.pre25 = load i64, ptr %.phi.trans.insert24, align 8
  %.phi.trans.insert26 = getelementptr inbounds i8, ptr %3, i64 32
  %.pre27 = load i64, ptr %.phi.trans.insert26, align 16
  br label %._crit_edge

._crit_edge:                                      ; preds = %._crit_edge.loopexit, %1
  %31 = phi i64 [ %.pre27, %._crit_edge.loopexit ], [ 0, %1 ]
  %32 = phi i64 [ %.pre25, %._crit_edge.loopexit ], [ 0, %1 ]
  %33 = phi i64 [ %.pre23, %._crit_edge.loopexit ], [ 0, %1 ]
  %34 = phi i64 [ %.pre, %._crit_edge.loopexit ], [ 0, %1 ]
  %35 = getelementptr inbounds i8, ptr %0, i64 48
  store i64 %34, ptr %35, align 8
  %.sroa.2.0..sroa_idx = getelementptr inbounds i8, ptr %0, i64 56
  store i64 %33, ptr %.sroa.2.0..sroa_idx, align 8
  %.sroa.3.0..sroa_idx = getelementptr inbounds i8, ptr %0, i64 64
  store i64 %32, ptr %.sroa.3.0..sroa_idx, align 8
  %.sroa.4.0..sroa_idx = getelementptr inbounds i8, ptr %0, i64 72
  store i64 %31, ptr %.sroa.4.0..sroa_idx, align 8
  %36 = load volatile ptr, ptr getelementptr inbounds (i8, ptr @_ZN16LogTagSetMappingILN6LogTag4typeE49ELS1_126ELS1_0ELS1_0ELS1_0ELS1_0EE7_tagsetE, i64 64), align 8
  %.not = icmp eq ptr %36, null
  br i1 %.not, label %46, label %37

37:                                               ; preds = %._crit_edge
  %38 = getelementptr inbounds i8, ptr %2, i64 8
  %39 = load i64, ptr %38, align 8
  %40 = getelementptr inbounds i8, ptr %2, i64 16
  %41 = load i64, ptr %40, align 16
  %42 = getelementptr inbounds i8, ptr %2, i64 24
  %43 = load i64, ptr %42, align 8
  %44 = getelementptr inbounds i8, ptr %2, i64 32
  %45 = load i64, ptr %44, align 16
  tail call void (ptr, ...) @_ZN7LogImplILN6LogTag4typeE49ELS1_126ELS1_0ELS1_0ELS1_0ELS1_0EE5writeILN8LogLevel4typeE3EEEvPKcz(ptr noundef nonnull @.str.5, i64 noundef %39, i64 noundef %41, i64 noundef %43, i64 noundef %45)
  br label %46

46:                                               ; preds = %._crit_edge, %37
  %47 = load volatile ptr, ptr getelementptr inbounds (i8, ptr @_ZN16LogTagSetMappingILN6LogTag4typeE49ELS1_126ELS1_0ELS1_0ELS1_0ELS1_0EE7_tagsetE, i64 64), align 8
  %.not15 = icmp eq ptr %47, null
  br i1 %.not15, label %49, label %48

48:                                               ; preds = %46
  tail call void (ptr, ...) @_ZN7LogImplILN6LogTag4typeE49ELS1_126ELS1_0ELS1_0ELS1_0ELS1_0EE5writeILN8LogLevel4typeE3EEEvPKcz(ptr noundef nonnull @.str.6, i64 noundef %34, i64 noundef %33, i64 noundef %32, i64 noundef %31)
  br label %49

49:                                               ; preds = %46, %48
  %50 = load volatile ptr, ptr getelementptr inbounds (i8, ptr @_ZN16LogTagSetMappingILN6LogTag4typeE49ELS1_126ELS1_0ELS1_0ELS1_0ELS1_0EE7_tagsetE, i64 64), align 8
  %.not16 = icmp eq ptr %50, null
  br i1 %.not16, label %60, label %51

51:                                               ; preds = %49
  %52 = getelementptr inbounds i8, ptr %4, i64 8
  %53 = load i64, ptr %52, align 8
  %54 = getelementptr inbounds i8, ptr %4, i64 16
  %55 = load i64, ptr %54, align 16
  %56 = getelementptr inbounds i8, ptr %4, i64 24
  %57 = load i64, ptr %56, align 8
  %58 = getelementptr inbounds i8, ptr %4, i64 32
  %59 = load i64, ptr %58, align 16
  tail call void (ptr, ...) @_ZN7LogImplILN6LogTag4typeE49ELS1_126ELS1_0ELS1_0ELS1_0ELS1_0EE5writeILN8LogLevel4typeE3EEEvPKcz(ptr noundef nonnull @.str.7, i64 noundef %53, i64 noundef %55, i64 noundef %57, i64 noundef %59)
  br label %60

60:                                               ; preds = %49, %51
  ret void
}